; Function Attrs: mustprogress uwtable
define void @_Z14duDebugDrawBoxP11duDebugDrawffffffPKj(ptr noundef %0, float noundef %1, float noundef %2, float noundef %3, float noundef %4, float noundef %5, float noundef %6, ptr nocapture noundef readonly %7) local_unnamed_addr #4 {
  %.not = icmp eq ptr %0, null
  br i1 %.not, label %16, label %9

9:                                                ; preds = %8
  %10 = load ptr, ptr %0, align 8
  %11 = getelementptr inbounds i8, ptr %10, i64 32
  %12 = load ptr, ptr %11, align 8
  tail call void %12(ptr noundef nonnull align 8 dereferenceable(8) %0, i32 noundef 3, float noundef 1.000000e+00)
  tail call void @_Z11duAppendBoxP11duDebugDrawffffffPKj(ptr noundef nonnull %0, float noundef %1, float noundef %2, float noundef %3, float noundef %4, float noundef %5, float noundef %6, ptr noundef %7)
  %13 = load ptr, ptr %0, align 8
  %14 = getelementptr inbounds i8, ptr %13, i64 72
  %15 = load ptr, ptr %14, align 8
  tail call void %15(ptr noundef nonnull align 8 dereferenceable(8) %0)
  br label %16

16:                                               ; preds = %8, %9
  ret void
}